
_main:

;MyProject.c,5 :: 		void main() {
;MyProject.c,6 :: 		TRISA = 0b00000010;   // RA0 como saída (buzzer), RA1 entrada (reserva)
	MOVLW      2
	MOVWF      TRISA+0
;MyProject.c,7 :: 		PORTA = 0;
	CLRF       PORTA+0
;MyProject.c,9 :: 		Sound_Init(&PORTA, 0);  // Inicializa som no pino RA0
	MOVLW      PORTA+0
	MOVWF      FARG_Sound_Init_snd_port+0
	CLRF       FARG_Sound_Init_snd_pin+0
	CALL       _Sound_Init+0
;MyProject.c,11 :: 		while(1) {
L_main0:
;MyProject.c,13 :: 		Sound_Play(100, 300);  // 100 Hz
	MOVLW      100
	MOVWF      FARG_Sound_Play_freq_in_hz+0
	MOVLW      0
	MOVWF      FARG_Sound_Play_freq_in_hz+1
	MOVLW      44
	MOVWF      FARG_Sound_Play_duration_ms+0
	MOVLW      1
	MOVWF      FARG_Sound_Play_duration_ms+1
	CALL       _Sound_Play+0
;MyProject.c,14 :: 		delay_ms(500);
	MOVLW      6
	MOVWF      R11+0
	MOVLW      19
	MOVWF      R12+0
	MOVLW      173
	MOVWF      R13+0
L_main2:
	DECFSZ     R13+0, 1
	GOTO       L_main2
	DECFSZ     R12+0, 1
	GOTO       L_main2
	DECFSZ     R11+0, 1
	GOTO       L_main2
	NOP
	NOP
;MyProject.c,15 :: 		Sound_Play(200, 300);  // 200 Hz
	MOVLW      200
	MOVWF      FARG_Sound_Play_freq_in_hz+0
	CLRF       FARG_Sound_Play_freq_in_hz+1
	MOVLW      44
	MOVWF      FARG_Sound_Play_duration_ms+0
	MOVLW      1
	MOVWF      FARG_Sound_Play_duration_ms+1
	CALL       _Sound_Play+0
;MyProject.c,16 :: 		delay_ms(500);
	MOVLW      6
	MOVWF      R11+0
	MOVLW      19
	MOVWF      R12+0
	MOVLW      173
	MOVWF      R13+0
L_main3:
	DECFSZ     R13+0, 1
	GOTO       L_main3
	DECFSZ     R12+0, 1
	GOTO       L_main3
	DECFSZ     R11+0, 1
	GOTO       L_main3
	NOP
	NOP
;MyProject.c,17 :: 		Sound_Play(400, 300);  // 400 Hz
	MOVLW      144
	MOVWF      FARG_Sound_Play_freq_in_hz+0
	MOVLW      1
	MOVWF      FARG_Sound_Play_freq_in_hz+1
	MOVLW      44
	MOVWF      FARG_Sound_Play_duration_ms+0
	MOVLW      1
	MOVWF      FARG_Sound_Play_duration_ms+1
	CALL       _Sound_Play+0
;MyProject.c,18 :: 		delay_ms(500);
	MOVLW      6
	MOVWF      R11+0
	MOVLW      19
	MOVWF      R12+0
	MOVLW      173
	MOVWF      R13+0
L_main4:
	DECFSZ     R13+0, 1
	GOTO       L_main4
	DECFSZ     R12+0, 1
	GOTO       L_main4
	DECFSZ     R11+0, 1
	GOTO       L_main4
	NOP
	NOP
;MyProject.c,19 :: 		Sound_Play(800, 300);  // 800 Hz
	MOVLW      32
	MOVWF      FARG_Sound_Play_freq_in_hz+0
	MOVLW      3
	MOVWF      FARG_Sound_Play_freq_in_hz+1
	MOVLW      44
	MOVWF      FARG_Sound_Play_duration_ms+0
	MOVLW      1
	MOVWF      FARG_Sound_Play_duration_ms+1
	CALL       _Sound_Play+0
;MyProject.c,20 :: 		delay_ms(1000);
	MOVLW      11
	MOVWF      R11+0
	MOVLW      38
	MOVWF      R12+0
	MOVLW      93
	MOVWF      R13+0
L_main5:
	DECFSZ     R13+0, 1
	GOTO       L_main5
	DECFSZ     R12+0, 1
	GOTO       L_main5
	DECFSZ     R11+0, 1
	GOTO       L_main5
	NOP
	NOP
;MyProject.c,21 :: 		}
	GOTO       L_main0
;MyProject.c,22 :: 		}
L_end_main:
	GOTO       $+0
; end of _main
